(lp0
(lp1
F54.900000000000006
aa(lp2
F55.46
aa(lp3
F54.5
aa(lp4
F54.34
aa(lp5
F779.69
aa(lp6
F1320.2099999999998
aa(lp7
F1305.2400000000007
aa(lp8
F925.4500000000004
aa(lp9
F55.220000000000006
aa(lp10
F54.92
aa(lp11
F2112.8399999999992
aa(lp12
F940.7399999999998
aa(lp13
F54.870000000000005
aa(lp14
F5125.869999999994
aa(lp15
F712.6999999999999
aa(lp16
F56.7
aa(lp17
F942.9099999999999
aa(lp18
F2854.51
aa(lp19
F5147.219999999988
aa(lp20
F56.660000000000004
aa(lp21
F819.61
aa(lp22
F150.87
aa(lp23
F57.37
aa(lp24
F55.17
aa(lp25
F909.1600000000002
aa(lp26
F54.7
aa(lp27
F5101.0300000000025
aa(lp28
F565.25
aa(lp29
F56.57
aa(lp30
F926.8299999999999
aa(lp31
F2120.5199999999995
aa(lp32
F5130.250000000002
aa(lp33
F56.29
aa(lp34
F813.7
aa(lp35
F170.84
aa(lp36
F5100.290000000002
aa(lp37
F55.209999999999994
aa(lp38
F54.08
aa(lp39
F907.33
aa(lp40
F54.95
aa(lp41
F5127.549999999995
aa(lp42
F564.41
aa(lp43
F62.42
aa(lp44
F929.8599999999999
aa(lp45
F2345.4600000000005
aa(lp46
F5155.709999999997
aa(lp47
F55.63
aa(lp48
F1119.0100000000002
aa(lp49
F171.73000000000002
aa(lp50
F4894.970000000001
aa(lp51
F2138.8399999999992
aa(lp52
F3282.0800000000013
aa(lp53
F57.05
aa(lp54
F56.559999999999995
aa(lp55
F1505.4
aa(lp56
F56.72
aa(lp57
F5167.840000000002
aa(lp58
F566.6300000000001
aa(lp59
F56.89
aa(lp60
F1406.6699999999998
aa(lp61
F2154.2099999999987
aa(lp62
F5174.180000000004
aa(lp63
F55.84
aa(lp64
F823.64
aa(lp65
F150.85
aa(lp66
F3284.9399999999996
aa(lp67
F3036.1100000000015
aa(lp68
F3283.559999999999
aa(lp69
F54.25
aa(lp70
F61.15
aa(lp71
F1461.0199999999995
aa(lp72
F54.79
aa(lp73
F2816.9699999999993
aa(lp74
F797.05
aa(lp75
F12889.880000000001
aa(lp76
F154.36
aa(lp77
F5184.320000000003
aa(lp78
F4934.800000000002
aa(lp79
F955.3499999999998
aa(lp80
F1683.67
aa(lp81
F876.6300000000001
aa(lp82
F250.70999999999998
aa(lp83
F2130.120000000001
aa(lp84
F1032.3399999999997
aa(lp85
F567.5199999999999
aa(lp86
F56.28999999999999
aa(lp87
F2274.6999999999994
aa(lp88
F1578.4899999999993
aa(lp89
F433.5
aa(lp90
F3933.8900000000012
aa(lp91
F42.75
aa(lp92
F152.44
aa(lp93
F2855.839999999999
aa(lp94
F829.3700000000002
aa(lp95
F12823.680000000002
aa(lp96
F155.24
aa(lp97
F5188.7300000000005
aa(lp98
F4269.490000000001
aa(lp99
F1135.77
aa(lp100
F1717.8799999999992
aa(lp101
F877.1900000000002
aa(lp102
F251.3
aa(lp103
F2129.5100000000007
aa(lp104
F1005.4499999999998
aa(lp105
F568.57
aa(lp106
F56.08
aa(lp107
F2251.1600000000003
aa(lp108
F1591.6899999999998
aa(lp109
F407.93000000000006
aa(lp110
F3937.339999999998
aa(lp111
F59.23
aa(lp112
F174.44
aa(lp113
F2845.2199999999993
aa(lp114
F1102.9
aa(lp115
F12809.130000000006
aa(lp116
F171.62
aa(lp117
F5191.950000000003
aa(lp118
F3289.71
aa(lp119
F939.0700000000004
aa(lp120
F1655.1000000000006
aa(lp121
F872.0499999999998
aa(lp122
F250.24
aa(lp123
F2129.3300000000004
aa(lp124
F1025.1599999999999
aa(lp125
F568.6099999999999
aa(lp126
F57.209999999999994
aa(lp127
F2277.009999999999
aa(lp128
F1580.5700000000004
aa(lp129
F429.4599999999999
aa(lp130
F3919.279999999999
aa(lp131
F43.05
aa(lp132
F152.0
aa(lp133
F2874.0200000000004
aa(lp134
F807.2799999999999
aa(lp135
F12849.190000000008
aa(lp136
F154.56
aa(lp137
F5536.580000000001
aa(lp138
F3291.7599999999998
aa(lp139
F937.5499999999998
aa(lp140
F1684.760000000001
aa(lp141
F875.3799999999999
aa(lp142
F249.95
aa(lp143
F2857.0500000000015
aa(lp144
F1000.2299999999998
aa(lp145
F567.91
aa(lp146
F56.059999999999995
aa(lp147
F2438.080000000001
aa(lp148
F1593.7099999999996
aa(lp149
F406.1799999999999
aa(lp150
F3926.269999999999
aa(lp151
F42.980000000000004
aa(lp152
F174.25
aa(lp153
F2859.7499999999995
aa(lp154
F827.2200000000001
aa(lp155
F13121.639999999998
aa(lp156
F154.38
aa(lp157
F5170.4999999999945
aa(lp158
F3268.19
aa(lp159
F934.3100000000001
aa(lp160
F1678.2299999999984
aa(lp161
F865.3999999999999
aa(lp162
F248.31000000000003
aa(lp163
F2134.9100000000003
aa(lp164
F1014.9200000000002
aa(lp165
F566.2199999999999
aa(lp166
F63.78
aa(lp167
F2841.9300000000003
aa(lp168
F1559.1800000000005
aa(lp169
F426.91
aa(lp170
F3910.43
aa(lp171
F42.61
aa(lp172
F150.87
aa(lp173
F2843.5899999999997
aa(lp174
F798.71
aa(lp175
F12887.53999999999
aa(lp176
F170.09999999999997
aa(lp177
F5142.190000000002
aa(lp178
F3258.880000000002
aa(lp179
F929.4399999999999
aa(lp180
F1615.880000000001
aa(lp181
F861.9100000000001
aa(lp182
F246.67
aa(lp183
F2999.3499999999995
aa(lp184
F989.5899999999998
aa(lp185
F563.55
aa(lp186
F55.989999999999995
aa(lp187
F2291.599999999998
aa(lp188
F1568.2299999999998
aa(lp189
F402.48
aa(lp190
F3898.76
aa(lp191
F59.60000000000001
aa(lp192
F150.51999999999998
aa(lp193
F2816.18
aa(lp194
F815.2400000000001
aa(lp195
F12979.720000000014
aa(lp196
F152.33
aa(lp197
F5124.42000000001
aa(lp198
F3241.4499999999994
aa(lp199
F928.5100000000001
aa(lp200
F1699.18
aa(lp201
F862.7499999999999
aa(lp202
F247.10000000000002
aa(lp203
F2916.4099999999994
aa(lp204
F993.8299999999998
aa(lp205
F564.02
aa(lp206
F56.59
aa(lp207
F2264.5299999999997
aa(lp208
F1572.0600000000002
aa(lp209
F401.90999999999997
aa(lp210
F3867.7700000000013
aa(lp211
F59.040000000000006
aa(lp212
F149.85999999999999
aa(lp213
F2810.2799999999993
aa(lp214
F912.3299999999999
aa(lp215
F2784.7299999999977
aa(lp216
F810.5899999999998
aa(lp217
F2710.0199999999986
aa(lp218
F12807.639999999998
aa(lp219
F169.31000000000003
aa(lp220
F5310.6100000000015
aa(lp221
F3259.449999999998
aa(lp222
F1125.0599999999997
aa(lp223
F887.9399999999997
aa(lp224
F1673.6799999999998
aa(lp225
F880.9699999999998
aa(lp226
F80.21000000000001
aa(lp227
F247.17999999999998
aa(lp228
F2325.120000000001
aa(lp229
F1011.9800000000004
aa(lp230
F564.2699999999999
aa(lp231
F55.77000000000001
aa(lp232
F2573.7800000000007
aa(lp233
F2250.3700000000013
aa(lp234
F125.96000000000001
aa(lp235
F1557.2700000000004
aa(lp236
F363.44000000000005
aa(lp237
F404.07
aa(lp238
F933.5199999999999
aa(lp239
F3887.239999999998
aa(lp240
F42.519999999999996
aa(lp241
F150.02000000000004
aa(lp242
F928.5699999999999
aa(lp243
F2810.6499999999987
aa(lp244
F813.1
aa(lp245
F2623.120000000001
aa(lp246
F12757.000000000004
aa(lp247
F152.81
aa(lp248
F5114.240000000001
aa(lp249
F3243.5600000000004
aa(lp250
F925.8299999999999
aa(lp251
F858.6299999999999
aa(lp252
F1680.8400000000008
aa(lp253
F877.0399999999997
aa(lp254
F79.79
aa(lp255
F246.83000000000004
aa(lp256
F2236.3499999999985
aa(lp257
F988.2499999999999
aa(lp258
F760.4699999999999
aa(lp259
F55.42
aa(lp260
F2334.420000000001
aa(lp261
F2626.8999999999987
aa(lp262
F126.02
aa(lp263
F1547.2200000000005
aa(lp264
F331.20000000000005
aa(lp265
F401.32000000000005
aa(lp266
F934.9899999999999
aa(lp267
F3865.2799999999984
aa(lp268
F58.519999999999996
aa(lp269
F147.64000000000004
aa(lp270
F36.760000000000005
aa(lp271
F878.1599999999995
aa(lp272
F2117.2900000000004
aa(lp273
F630.42
aa(lp274
F2448.7899999999986
aa(lp275
F10368.300000000001
aa(lp276
F92.53
aa(lp277
F3162.1600000000008
aa(lp278
F2807.689999999999
aa(lp279
F1510.1800000000012
aa(lp280
F951.6899999999999
aa(lp281
F1676.9699999999996
aa(lp282
F656.42
aa(lp283
F69.14
aa(lp284
F180.60999999999999
aa(lp285
F2713.5200000000004
aa(lp286
F749.6700000000002
aa(lp287
F779.8399999999999
aa(lp288
F37.379999999999995
aa(lp289
F1707.04
aa(lp290
F1779.0900000000004
aa(lp291
F90.63
aa(lp292
F965.08
aa(lp293
F293.85
aa(lp294
F405.37
aa(lp295
F863.6200000000001
aa(lp296
F2978.4399999999996
aa(lp297
F23.56
aa(lp298
F132.48000000000002
aa(lp299
F882.16
aa(lp300
F2123.6199999999994
aa(lp301
F630.0500000000002
aa(lp302
F2502.250000000001
aa(lp303
F10427.769999999993
aa(lp304
F92.86
aa(lp305
F4180.249999999998
aa(lp306
F4877.449999999999
aa(lp307
F705.5200000000001
aa(lp308
F960.1400000000001
aa(lp309
F1717.0700000000004
aa(lp310
F658.3399999999999
aa(lp311
F68.99000000000001
aa(lp312
F181.32999999999998
aa(lp313
F1735.2100000000005
aa(lp314
F780.9199999999998
aa(lp315
F571.64
aa(lp316
F69.21000000000001
aa(lp317
F1695.64
aa(lp318
F1798.7099999999991
aa(lp319
F90.58
aa(lp320
F966.2500000000001
aa(lp321
F326.21
aa(lp322
F407.61
aa(lp323
F864.0499999999998
aa(lp324
F2982.3300000000004
aa(lp325
F23.8
aa(lp326
F133.47
aa(lp327
F917.8000000000001
aa(lp328
F2157.4900000000007
aa(lp329
F633.74
aa(lp330
F2467.380000000001
aa(lp331
F10420.27
aa(lp332
F92.47
aa(lp333
F3148.3000000000006
aa(lp334
F2805.2299999999996
aa(lp335
F1514.000000000001
aa(lp336
F947.6899999999998
aa(lp337
F1672.1400000000012
aa(lp338
F654.28
aa(lp339
F68.0
aa(lp340
F180.73
aa(lp341
F1780.0700000000006
aa(lp342
F741.1800000000001
aa(lp343
F803.44
aa(lp344
F37.03
aa(lp345
F1718.5500000000002
aa(lp346
F1821.77
aa(lp347
F90.78
aa(lp348
F962.3900000000001
aa(lp349
F293.47999999999996
aa(lp350
F405.8999999999999
aa(lp351
F861.44
aa(lp352
F2979.4100000000003
aa(lp353
F43.16
aa(lp354
F88.94
aa(lp355
F919.6299999999999
aa(lp356
F2157.190000000001
aa(lp357
F637.0899999999999
aa(lp358
F2521.8999999999996
aa(lp359
F10627.77
aa(lp360
F93.12
aa(lp361
F3176.1800000000003
aa(lp362
F2825.790000000001
aa(lp363
F697.91
aa(lp364
F955.1699999999998
aa(lp365
F1719.889999999999
aa(lp366
F663.96
aa(lp367
F69.35
aa(lp368
F181.29000000000002
aa(lp369
F1787.3599999999997
aa(lp370
F748.5700000000002
aa(lp371
F573.42
aa(lp372
F39.09
aa(lp373
F1739.9599999999996
aa(lp374
F1831.1299999999997
aa(lp375
F91.82
aa(lp376
F969.4299999999998
aa(lp377
F326.63
aa(lp378
F406.58
aa(lp379
F898.1600000000002
aa(lp380
F2966.89
aa(lp381
F23.12
aa(lp382
F108.05
aa(lp383
F920.13
aa(lp384
F2168.169999999999
aa(lp385
F636.0899999999998
aa(lp386
F2584.019999999999
aa(lp387
F10630.730000000001
aa(lp388
F93.05
aa(lp389
F3181.670000000002
aa(lp390
F2828.099999999999
aa(lp391
F1534.68
aa(lp392
F963.4300000000003
aa(lp393
F1692.9199999999987
aa(lp394
F659.0
aa(lp395
F68.48
aa(lp396
F181.92000000000002
aa(lp397
F1759.4000000000003
aa(lp398
F751.56
aa(lp399
F573.3599999999999
aa(lp400
F70.01
aa(lp401
F1676.5499999999997
aa(lp402
F1829.3700000000001
aa(lp403
F91.69
aa(lp404
F970.1099999999999
aa(lp405
F328.32000000000005
aa(lp406
F411.04
aa(lp407
F869.9899999999999
aa(lp408
F2992.9999999999986
aa(lp409
F43.43
aa(lp410
F89.46000000000001
aa(lp411
F883.5799999999998
aa(lp412
F2124.559999999999
aa(lp413
F628.6300000000001
aa(lp414
F2553.2200000000016
aa(lp415
F10318.179999999988
aa(lp416
F92.33
aa(lp417
F3163.009999999999
aa(lp418
F2809.3799999999997
aa(lp419
F701.79
aa(lp420
F950.5499999999998
aa(lp421
F1708.7200000000003
aa(lp422
F659.8099999999998
aa(lp423
F68.05
aa(lp424
F181.31
aa(lp425
F1755.89
aa(lp426
F747.7499999999998
aa(lp427
F570.8199999999999
aa(lp428
F71.00999999999999
aa(lp429
F1704.5900000000004
aa(lp430
F1824.1499999999999
aa(lp431
F89.92
aa(lp432
F963.7700000000002
aa(lp433
F292.03
aa(lp434
F407.22999999999996
aa(lp435
F866.4099999999999
aa(lp436
F2972.6999999999994
aa(lp437
F23.29
aa(lp438
F88.67999999999999
aa(lp439
F914.96
aa(lp440
F2158.2900000000004
aa(lp441
F631.72
aa(lp442
F2466.340000000001
aa(lp443
F10533.679999999995
aa(lp444
F93.05
aa(lp445
F3169.5099999999998
aa(lp446
F2807.95
aa(lp447
F701.5
aa(lp448
F954.1899999999997
aa(lp449
F1816.2000000000012
aa(lp450
F659.27
aa(lp451
F68.25
aa(lp452
F180.68
aa(lp453
F1761.3199999999997
aa(lp454
F740.0699999999999
aa(lp455
F572.9600000000002
aa(lp456
F38.67
aa(lp457
F1700.3500000000001
aa(lp458
F1829.37
aa(lp459
F109.51000000000002
aa(lp460
F962.04
aa(lp461
F323.15000000000003
aa(lp462
F408.81000000000006
aa(lp463
F865.0400000000001
aa(lp464
F2957.1700000000005
aa(lp465
F43.7
aa(lp466
F132.9
aa(lp467
F915.81
aa(lp468
F2154.88
aa(lp469
F635.6
aa(lp470
F2517.8599999999988
aa(lp471
F10443.210000000005
aa(lp472
F92.28999999999999
aa(lp473
F3161.579999999999
aa(lp474
F4864.8
aa(lp475
F705.7900000000002
aa(lp476
F961.8200000000003
aa(lp477
F1711.529999999999
aa(lp478
F661.6899999999999
aa(lp479
F68.97
aa(lp480
F181.29000000000002
aa(lp481
F1764.7200000000003
aa(lp482
F746.6500000000001
aa(lp483
F573.98
aa(lp484
F67.35
aa(lp485
F1681.5399999999997
aa(lp486
F1826.41
aa(lp487
F90.64
aa(lp488
F972.3899999999999
aa(lp489
F294.0
aa(lp490
F409.71000000000004
aa(lp491
F868.4499999999998
aa(lp492
F2975.0800000000017
aa(lp493
F42.86
aa(lp494
F89.54
aa(lp495
F921.2
aa(lp496
F2166.89
aa(lp497
F637.0600000000002
aa(lp498
F2509.1100000000024
aa(lp499
F10497.729999999998
aa(lp500
F92.68
aa(lp501
F3176.339999999999
aa(lp502
F2821.6000000000004
aa(lp503
F705.7900000000001
aa(lp504
F964.5899999999999
aa(lp505
F1719.8899999999996
aa(lp506
F666.0499999999998
aa(lp507
F85.82000000000001
aa(lp508
F181.25
aa(lp509
F1738.2400000000007
aa(lp510
F744.7700000000001
aa(lp511
F574.0000000000001
aa(lp512
F67.72
aa(lp513
F1777.6399999999999
aa(lp514
F1812.2199999999996
aa(lp515
F90.51
aa(lp516
F969.3700000000001
aa(lp517
F320.65
aa(lp518
F410.4499999999999
aa(lp519
F870.14
aa(lp520
F2995.859999999999
aa(lp521
F24.2
aa(lp522
F129.82999999999998
aa(lp523
F923.4699999999999
aa(lp524
F2170.7799999999993
aa(lp525
F637.84
aa(lp526
F2537.880000000001
aa(lp527
F10487.86
aa(lp528
F111.58
aa(lp529
F3174.859999999998
aa(lp530
F2822.480000000001
aa(lp531
F1522.3100000000009
aa(lp532
F963.76
aa(lp533
F1713.7000000000012
aa(lp534
F663.7400000000001
aa(lp535
F69.88
aa(lp536
F181.09
aa(lp537
F1734.9200000000003
aa(lp538
F744.33
aa(lp539
F574.12
aa(lp540
F38.59
aa(lp541
F1680.0999999999995
aa(lp542
F1829.0399999999997
aa(lp543
F90.28999999999999
aa(lp544
F970.9100000000001
aa(lp545
F327.71999999999997
aa(lp546
F409.2799999999999
aa(lp547
F864.06
aa(lp548
F2956.850000000001
aa(lp549
F42.53
aa(lp550
F89.37
aa(lp551
F917.56
aa(lp552
F2162.440000000001
aa(lp553
F1013.6700000000002
aa(lp554
F2482.0899999999974
aa(lp555
F10528.639999999998
aa(lp556
F92.4
aa(lp557
F3177.0099999999998
aa(lp558
F2820.769999999999
aa(lp559
F701.7300000000001
aa(lp560
F953.8600000000002
aa(lp561
F1676.9799999999993
aa(lp562
F656.21
aa(lp563
F69.16999999999999
aa(lp564
F180.70000000000002
aa(lp565
F1751.93
aa(lp566
F744.8700000000001
aa(lp567
F572.71
aa(lp568
F38.64
aa(lp569
F1727.72
aa(lp570
F1776.5900000000004
aa(lp571
F90.24
aa(lp572
F964.6899999999998
aa(lp573
F321.99
aa(lp574
F410.54
aa(lp575
F867.55
aa(lp576
F2980.6200000000003
aa(lp577
F42.18
aa(lp578
F89.44
aa(lp579
F917.5900000000004
aa(lp580
F2160.920000000002
aa(lp581
F632.0
aa(lp582
F2504.360000000001
aa(lp583
F10433.54
aa(lp584
F92.95
aa(lp585
F3175.8300000000004
aa(lp586
F4905.739999999998
aa(lp587
F1521.640000000001
aa(lp588
F966.57
aa(lp589
F1690.8599999999992
aa(lp590
F664.5799999999999
aa(lp591
F69.59
aa(lp592
F181.74
aa(lp593
F1754.739999999999
aa(lp594
F745.32
aa(lp595
F775.61
aa(lp596
F39.07
aa(lp597
F1711.7099999999998
aa(lp598
F1797.05
aa(lp599
F91.07000000000001
aa(lp600
F972.4799999999999
aa(lp601
F323.08
aa(lp602
F410.5200000000001
aa(lp603
F867.5400000000001
aa(lp604
F2964.8
aa(lp605
F43.9
aa(lp606
F89.84
aa(lp607
F924.3
aa(lp608
F2172.0999999999985
aa(lp609
F1039.53
aa(lp610
F2589.8599999999983
aa(lp611
F10504.949999999997
aa(lp612
F93.25999999999999
aa(lp613
F3179.0799999999995
aa(lp614
F2816.24
aa(lp615
F705.0699999999999
aa(lp616
F955.4599999999998
aa(lp617
F1717.6099999999985
aa(lp618
F665.36
aa(lp619
F68.94999999999999
aa(lp620
F181.73
aa(lp621
F1770.7599999999998
aa(lp622
F742.52
aa(lp623
F573.65
aa(lp624
F38.93
aa(lp625
F1680.2
aa(lp626
F1790.5800000000006
aa(lp627
F92.03
aa(lp628
F971.47
aa(lp629
F329.0299999999999
aa(lp630
F461.67
aa(lp631
F900.2800000000001
aa(lp632
F2969.15
aa(lp633
F44.67
aa(lp634
F135.12
aa(lp635
F926.4700000000003
aa(lp636
F2175.9299999999985
aa(lp637
F635.9100000000002
aa(lp638
F2496.009999999999
aa(lp639
F10419.709999999995
aa(lp640
F93.23
aa(lp641
F3183.7399999999993
aa(lp642
F2831.87
aa(lp643
F703.2399999999999
aa(lp644
F962.8100000000001
aa(lp645
F1713.9199999999992
aa(lp646
F666.01
aa(lp647
F69.43
aa(lp648
F182.23
aa(lp649
F1744.7399999999996
aa(lp650
F741.2300000000001
aa(lp651
F573.81
aa(lp652
F39.230000000000004
aa(lp653
F1710.9799999999998
aa(lp654
F1838.5900000000001
aa(lp655
F91.5
aa(lp656
F972.1800000000002
aa(lp657
F323.94
aa(lp658
F434.18000000000006
aa(lp659
F870.6
aa(lp660
F2972.28
aa(lp661
F23.74
aa(lp662
F89.44999999999999
aa(lp663
F918.7000000000002
aa(lp664
F2162.550000000001
aa(lp665
F675.4799999999999
aa(lp666
F2480.04
aa(lp667
F10443.630000000008
aa(lp668
F92.81
aa(lp669
F3180.1399999999976
aa(lp670
F2812.8499999999995
aa(lp671
F703.16
aa(lp672
F930.0299999999996
aa(lp673
F1741.0499999999997
aa(lp674
F663.47
aa(lp675
F69.86000000000001
aa(lp676
F181.48999999999998
aa(lp677
F1761.5799999999997
aa(lp678
F768.9599999999998
aa(lp679
F573.81
aa(lp680
F39.41
aa(lp681
F1714.7000000000007
aa(lp682
F1770.7099999999998
aa(lp683
F90.97999999999999
aa(lp684
F969.2
aa(lp685
F326.46000000000004
aa(lp686
F407.63
aa(lp687
F864.2900000000001
aa(lp688
F2956.910000000001
aa(lp689
F24.3
aa(lp690
F89.18
aa(lp691
F917.5999999999999
aa(lp692
F2163.8100000000013
aa(lp693
F636.7099999999999
aa(lp694
F2516.44
aa(lp695
F10522.77
aa(lp696
F93.13
aa(lp697
F3172.3200000000006
aa(lp698
F4831.220000000005
aa(lp699
F707.2900000000001
aa(lp700
F962.0100000000001
aa(lp701
F1684.1499999999999
aa(lp702
F660.6500000000001
aa(lp703
F69.53
aa(lp704
F181.66
aa(lp705
F2790.7
aa(lp706
F745.4000000000001
aa(lp707
F574.06
aa(lp708
F37.94
aa(lp709
F1705.7399999999993
aa(lp710
F1837.57
aa(lp711
F91.2
aa(lp712
F966.9300000000004
aa(lp713
F328.01
aa(lp714
F410.38000000000005
aa(lp715
F897.9700000000001
aa(lp716
F2965.85
aa(lp717
F43.07
aa(lp718
F89.66
aa(lp719
F919.52
aa(lp720
F2168.5699999999997
aa(lp721
F638.1299999999999
aa(lp722
F2580.160000000001
aa(lp723
F10488.280000000004
aa(lp724
F110.73
aa(lp725
F3182.639999999999
aa(lp726
F2820.62
aa(lp727
F1535.2399999999996
aa(lp728
F962.05
aa(lp729
F1668.7499999999989
aa(lp730
F664.6899999999998
aa(lp731
F69.67
aa(lp732
F181.86
aa(lp733
F1818.2600000000002
aa(lp734
F720.63
aa(lp735
F779.73
aa(lp736
F38.72
aa(lp737
F1740.1799999999998
aa(lp738
F1836.7600000000004
aa(lp739
F91.53
aa(lp740
F971.4300000000001
aa(lp741
F295.13
aa(lp742
F382.28000000000003
aa(lp743
F864.73
aa(lp744
F2951.0700000000006
aa(lp745
F43.010000000000005
aa(lp746
F89.72999999999999
aa(lp747
F924.4399999999999
aa(lp748
F2170.749999999999
aa(lp749
F638.68
aa(lp750
F2493.5899999999992
aa(lp751
F10553.79000000002
aa(lp752
F93.4
aa(lp753
F3184.920000000001
aa(lp754
F2837.6600000000003
aa(lp755
F706.3700000000002
aa(lp756
F968.9000000000001
aa(lp757
F1692.8799999999992
aa(lp758
F659.0999999999999
aa(lp759
F70.00999999999999
aa(lp760
F183.01
aa(lp761
F1773.3200000000015
aa(lp762
F750.19
aa(lp763
F574.49
aa(lp764
F38.32
aa(lp765
F1737.2300000000007
aa(lp766
F1777.4499999999996
aa(lp767
F91.08999999999999
aa(lp768
F973.7800000000001
aa(lp769
F355.65000000000003
aa(lp770
F434.78
aa(lp771
F869.9199999999998
aa(lp772
F2970.880000000001
aa(lp773
F43.06
aa(lp774
F89.9
aa(lp775
F922.9900000000002
aa(lp776
F2171.289999999999
aa(lp777
F638.1899999999999
aa(lp778
F2498.8499999999985
aa(lp779
F10418.40999999999
aa(lp780
F93.33999999999999
aa(lp781
F3191.2100000000005
aa(lp782
F2829.3500000000013
aa(lp783
F1547.9200000000003
aa(lp784
F962.8399999999999
aa(lp785
F1634.2199999999996
aa(lp786
F665.58
aa(lp787
F69.38
aa(lp788
F181.79
aa(lp789
F1766.6799999999994
aa(lp790
F718.79
aa(lp791
F577.78
aa(lp792
F39.05
aa(lp793
F1707.6699999999996
aa(lp794
F1828.6200000000001
aa(lp795
F90.72999999999999
aa(lp796
F968.3299999999999
aa(lp797
F325.40999999999997
aa(lp798
F429.60999999999996
aa(lp799
F866.0099999999999
aa(lp800
F2986.8899999999985
aa(lp801
F23.03
aa(lp802
F89.43
aa(lp803
F916.8500000000003
aa(lp804
F2162.6600000000017
aa(lp805
F634.9800000000001
aa(lp806
F2477.8499999999985
aa(lp807
F10354.189999999997
aa(lp808
F92.33000000000001
aa(lp809
F3158.05
aa(lp810
F2818.3299999999977
aa(lp811
F1510.65
aa(lp812
F933.1199999999998
aa(lp813
F1706.3899999999992
aa(lp814
F652.81
aa(lp815
F68.49000000000001
aa(lp816
F180.87
aa(lp817
F1729.620000000001
aa(lp818
F738.18
aa(lp819
F571.6899999999999
aa(lp820
F37.32
aa(lp821
F1731.46
aa(lp822
F1796.27
aa(lp823
F90.07000000000001
aa(lp824
F964.95
aa(lp825
F294.28000000000003
aa(lp826
F407.32
aa(lp827
F892.4300000000001
aa(lp828
F2975.460000000002
aa(lp829
F42.45
aa(lp830
F89.05
aa(lp831
F918.73
aa(lp832
F2158.450000000001
aa(lp833
F1011.5199999999999
aa(lp834
F2591.51
aa(lp835
F10422.800000000008
aa(lp836
F92.63999999999999
aa(lp837
F3178.6199999999976
aa(lp838
F4838.510000000002
aa(lp839
F1369.3
aa(lp840
F962.5100000000002
aa(lp841
F1746.4699999999993
aa(lp842
F659.1699999999998
aa(lp843
F69.82
aa(lp844
F181.17000000000002
aa(lp845
F1763.5199999999998
aa(lp846
F738.3500000000003
aa(lp847
F778.86
aa(lp848
F38.519999999999996
aa(lp849
F1707.34
aa(lp850
F1833.1999999999998
aa(lp851
F89.99
aa(lp852
F964.6199999999998
aa(lp853
F358.28000000000003
aa(lp854
F433.64
aa(lp855
F864.6799999999997
aa(lp856
F2982.520000000001
aa(lp857
F44.22
aa(lp858
F89.07000000000001
aa(lp859
F920.5599999999998
aa(lp860
F2164.420000000001
aa(lp861
F635.65
aa(lp862
F2505.97
aa(lp863
F10551.429999999993
aa(lp864
F93.19
aa(lp865
F4167.699999999999
aa(lp866
F4833.4199999999955
aa(lp867
F708.42
aa(lp868
F969.39
aa(lp869
F1721.4099999999994
aa(lp870
F660.7900000000001
aa(lp871
F69.78
aa(lp872
F181.89000000000001
aa(lp873
F2722.7999999999997
aa(lp874
F742.58
aa(lp875
F813.5100000000001
aa(lp876
F37.650000000000006
aa(lp877
F1712.5200000000002
aa(lp878
F1860.3899999999999
aa(lp879
F91.56
aa(lp880
F975.05
aa(lp881
F352.96
aa(lp882
F410.6599999999999
aa(lp883
F875.1600000000001
aa(lp884
F2998.79
aa(lp885
F43.61
aa(lp886
F89.64999999999999
aa(lp887
F926.0499999999997
aa(lp888
F2196.379999999999
aa(lp889
F642.98
aa(lp890
F2520.82
aa(lp891
F10487.490000000005
aa(lp892
F92.77000000000001
aa(lp893
F4177.489999999999
aa(lp894
F2838.480000000002
aa(lp895
F1528.8500000000008
aa(lp896
F970.6
aa(lp897
F1691.5499999999984
aa(lp898
F664.04
aa(lp899
F70.21
aa(lp900
F182.98000000000002
aa(lp901
F1825.2500000000002
aa(lp902
F722.81
aa(lp903
F574.4999999999999
aa(lp904
F38.54
aa(lp905
F1718.4600000000007
aa(lp906
F1868.3000000000002
aa(lp907
F91.14999999999999
aa(lp908
F976.9400000000003
aa(lp909
F358.95000000000005
aa(lp910
F438.03
aa(lp911
F867.81
aa(lp912
F2968.69
aa(lp913
F24.01
aa(lp914
F90.02
aa(lp915
F881.7700000000002
aa(lp916
F2122.1199999999994
aa(lp917
F632.54
aa(lp918
F2493.589999999999
aa(lp919
F10418.180000000006
aa(lp920
F112.08999999999999
aa(lp921
F3166.94
aa(lp922
F2821.5800000000004
aa(lp923
F702.67
aa(lp924
F957.2399999999999
aa(lp925
F1709.420000000001
aa(lp926
F657.9999999999999
aa(lp927
F69.22
aa(lp928
F181.16000000000003
aa(lp929
F1785.03
aa(lp930
F716.96
aa(lp931
F806.02
aa(lp932
F37.42
aa(lp933
F1710.0500000000002
aa(lp934
F1793.2999999999997
aa(lp935
F89.9
aa(lp936
F967.6300000000001
aa(lp937
F326.87
aa(lp938
F409.51
aa(lp939
F865.98
aa(lp940
F2995.03
aa(lp941
F42.88
aa(lp942
F89.28
aa(lp943
F922.6500000000003
aa(lp944
F2169.7499999999995
aa(lp945
F636.57
aa(lp946
F2514.9400000000005
aa(lp947
F10458.509999999998
aa(lp948
F92.57
aa(lp949
F3186.3700000000017
aa(lp950
F2828.6400000000003
aa(lp951
F705.4700000000001
aa(lp952
F961.4
aa(lp953
F1878.2899999999995
aa(lp954
F664.5800000000002
aa(lp955
F69.49000000000001
aa(lp956
F182.46999999999997
aa(lp957
F1743.4499999999996
aa(lp958
F740.8
aa(lp959
F574.14
aa(lp960
F38.07
aa(lp961
F1716.5900000000004
aa(lp962
F1812.8399999999995
aa(lp963
F91.57
aa(lp964
F973.0799999999998
aa(lp965
F358.94000000000005
aa(lp966
F411.4200000000001
aa(lp967
F873.1299999999997
aa(lp968
F2991.7
aa(lp969
F43.15
aa(lp970
F89.75
aa(lp971
F925.4999999999995
aa(lp972
F2175.229999999999
aa(lp973
F638.05
aa(lp974
F2500.58
aa(lp975
F10525.110000000004
aa(lp976
F93.07000000000001
aa(lp977
F3202.649999999999
aa(lp978
F2840.3600000000006
aa(lp979
F706.7699999999999
aa(lp980
F970.0600000000002
aa(lp981
F1699.790000000001
aa(lp982
F663.5200000000002
aa(lp983
F71.01
aa(lp984
F182.45000000000002
aa(lp985
F2705.8999999999996
aa(lp986
F750.9799999999997
aa(lp987
F789.19
aa(lp988
F68.87
aa(lp989
F1758.0699999999995
aa(lp990
F1787.6799999999998
aa(lp991
F91.78999999999999
aa(lp992
F975.4900000000002
aa(lp993
F355.27000000000004
aa(lp994
F440.06
aa(lp995
F883.15
aa(lp996
F2985.3499999999995
aa(lp997
F23.16
aa(lp998
F90.2
aa(lp999
F926.4799999999997
aa(lp1000
F2175.6399999999985
aa(lp1001
F640.38
aa(lp1002
F2520.34
aa(lp1003
F10504.930000000004
aa(lp1004
F112.02
aa(lp1005
F3180.3099999999963
aa(lp1006
F2831.6499999999996
aa(lp1007
F1561.96
aa(lp1008
F941.2899999999995
aa(lp1009
F1718.0499999999988
aa(lp1010
F665.83
aa(lp1011
F69.7
aa(lp1012
F181.64
aa(lp1013
F1762.0400000000002
aa(lp1014
F720.5300000000001
aa(lp1015
F573.6699999999998
aa(lp1016
F38.93
aa(lp1017
F1705.5700000000004
aa(lp1018
F1800.8599999999997
aa(lp1019
F91.41000000000001
aa(lp1020
F965.42
aa(lp1021
F319.55999999999995
aa(lp1022
F409.78
aa(lp1023
F865.7400000000001
aa(lp1024
F2961.15
aa(lp1025
F43.0
aa(lp1026
F89.31
aa(lp1027
F921.1199999999999
aa(lp1028
F2167.53
aa(lp1029
F636.58
aa(lp1030
F2581.710000000002
aa(lp1031
F10561.409999999998
aa(lp1032
F92.77
aa(lp1033
F3177.8099999999995
aa(lp1034
F2803.8799999999987
aa(lp1035
F701.7
aa(lp1036
F951.0799999999999
aa(lp1037
F1705.2299999999996
aa(lp1038
F632.68
aa(lp1039
F69.69
aa(lp1040
F181.11
aa(lp1041
F2648.2600000000007
aa(lp1042
F717.32
aa(lp1043
F572.5099999999999
aa(lp1044
F38.99
aa(lp1045
F1707.8199999999995
aa(lp1046
F1857.9000000000003
aa(lp1047
F90.97
aa(lp1048
F968.7900000000001
aa(lp1049
F319.74
aa(lp1050
F430.28000000000003
aa(lp1051
F862.4899999999999
aa(lp1052
F2980.1899999999996
aa(lp1053
F24.05
aa(lp1054
F89.53999999999999
aa(lp1055
F922.52
aa(lp1056
F2162.8100000000013
aa(lp1057
F632.95
aa(lp1058
F2523.35
aa(lp1059
F10397.859999999993
aa(lp1060
F92.99
aa(lp1061
F3189.19
aa(lp1062
F2825.669999999999
aa(lp1063
F705.4000000000001
aa(lp1064
F964.1700000000001
aa(lp1065
F1654.2200000000007
aa(lp1066
F660.6699999999998
aa(lp1067
F69.00999999999999
aa(lp1068
F181.58999999999997
aa(lp1069
F2782.3499999999995
aa(lp1070
F746.9699999999999
aa(lp1071
F658.63
aa(lp1072
F38.44
aa(lp1073
F1710.7600000000002
aa(lp1074
F1798.7399999999996
aa(lp1075
F90.69
aa(lp1076
F972.8399999999999
aa(lp1077
F327.74
aa(lp1078
F410.82
aa(lp1079
F867.63
aa(lp1080
F2987.46
aa(lp1081
F23.83
aa(lp1082
F113.59
aa(lp1083
F921.0899999999997
aa(lp1084
F2169.4699999999993
aa(lp1085
F641.1800000000002
aa(lp1086
F2582.990000000001
aa(lp1087
F10464.480000000003
aa(lp1088
F111.68
aa(lp1089
F3192.5799999999977
aa(lp1090
F4894.029999999999
aa(lp1091
F1533.439999999999
aa(lp1092
F969.3199999999998
aa(lp1093
F1697.9199999999985
aa(lp1094
F662.9600000000002
aa(lp1095
F69.82
aa(lp1096
F182.66
aa(lp1097
F2722.5899999999997
aa(lp1098
F754.18
aa(lp1099
F574.4900000000001
aa(lp1100
F38.7
aa(lp1101
F1717.9199999999994
aa(lp1102
F1787.1099999999992
aa(lp1103
F91.17
aa(lp1104
F993.3900000000001
aa(lp1105
F295.29999999999995
aa(lp1106
F404.85
aa(lp1107
F872.75
aa(lp1108
F2968.7899999999995
aa(lp1109
F23.46
aa(lp1110
F89.53999999999999
aa(lp1111
F927.0499999999998
aa(lp1112
F2174.77
aa(lp1113
F636.3900000000001
aa(lp1114
F2596.97
aa(lp1115
F10492.819999999998
aa(lp1116
F92.53999999999999
aa(lp1117
F4248.999999999998
aa(lp1118
F2822.22
aa(lp1119
F704.9
aa(lp1120
F962.0600000000001
aa(lp1121
F1750.3099999999984
aa(lp1122
F655.95
aa(lp1123
F70.3
aa(lp1124
F182.28
aa(lp1125
F1740.6199999999994
aa(lp1126
F749.29
aa(lp1127
F685.6999999999999
aa(lp1128
F69.59
aa(lp1129
F1736.4900000000005
aa(lp1130
F1807.49
aa(lp1131
F90.26
aa(lp1132
F967.0799999999999
aa(lp1133
F327.63999999999993
aa(lp1134
F409.26000000000005
aa(lp1135
F866.4399999999998
aa(lp1136
F2960.2000000000007
aa(lp1137
F42.97
aa(lp1138
F131.31
aa(lp1139
F921.5200000000001
aa(lp1140
F2165.5
aa(lp1141
F1044.3999999999999
aa(lp1142
F2510.2799999999997
aa(lp1143
F10596.620000000012
aa(lp1144
F93.09
aa(lp1145
F3171.9900000000002
aa(lp1146
F2827.6100000000006
aa(lp1147
F1529.2099999999991
aa(lp1148
F941.9800000000001
aa(lp1149
F1679.5399999999993
aa(lp1150
F656.5
aa(lp1151
F69.78
aa(lp1152
F182.05
aa(lp1153
F1766.2500000000002
aa(lp1154
F740.0999999999999
aa(lp1155
F776.25
aa(lp1156
F39.370000000000005
aa(lp1157
F1707.0800000000004
aa(lp1158
F1828.5399999999995
aa(lp1159
F90.77
aa(lp1160
F965.2000000000002
aa(lp1161
F360.6599999999999
aa(lp1162
F432.83000000000004
aa(lp1163
F903.4200000000001
aa(lp1164
F2985.9000000000005
aa(lp1165
F23.75
aa(lp1166
F89.24
aa(lp1167
F916.1
aa(lp1168
F2165.290000000001
aa(lp1169
F637.99
aa(lp1170
F2480.3299999999995
aa(lp1171
F10458.190000000006
aa(lp1172
F93.06
aa(lp1173
F3185.8500000000013
aa(lp1174
F2820.93
aa(lp1175
F703.28
aa(lp1176
F954.2799999999999
aa(lp1177
F1679.4
aa(lp1178
F660.49
aa(lp1179
F86.30999999999999
aa(lp1180
F182.38000000000002
aa(lp1181
F1736.7499999999998
aa(lp1182
F740.01
aa(lp1183
F573.8599999999999
aa(lp1184
F39.480000000000004
aa(lp1185
F1714.2800000000004
aa(lp1186
F1837.4000000000015
aa(lp1187
F92.26
aa(lp1188
F969.5199999999999
aa(lp1189
F327.91
aa(lp1190
F410.83000000000004
aa(lp1191
F890.28
aa(lp1192
F2994.0800000000004
aa(lp1193
F23.42
aa(lp1194
F133.37
aa(lp1195
F925.3300000000002
aa(lp1196
F2172.0299999999984
aa(lp1197
F641.5
aa(lp1198
F2585.8799999999997
aa(lp1199
F10644.36
aa(lp1200
F93.37
aa(lp1201
F3181.8799999999997
aa(lp1202
F2864.5200000000004
aa(lp1203
F705.7099999999999
aa(lp1204
F946.0900000000001
aa(lp1205
F1695.5299999999982
aa(lp1206
F663.34
aa(lp1207
F87.03999999999999
aa(lp1208
F182.63
aa(lp1209
F1800.51
aa(lp1210
F748.56
aa(lp1211
F573.68
aa(lp1212
F39.01
aa(lp1213
F1682.6199999999997
aa(lp1214
F1783.1799999999998
aa(lp1215
F91.63
aa(lp1216
F977.22
aa(lp1217
F356.49
aa(lp1218
F405.9
aa(lp1219
F874.5400000000001
aa(lp1220
F2997.830000000001
aa(lp1221
F42.34
aa(lp1222
F89.02
aa(lp1223
F927.1500000000002
aa(lp1224
F2177.940000000001
aa(lp1225
F637.1600000000001
aa(lp1226
F2541.939999999999
aa(lp1227
F10470.29
aa(lp1228
F92.92
aa(lp1229
F4141.39
aa(lp1230
F4777.05
aa(lp1231
F941.5600000000002
aa(lp1232
F967.6500000000002
aa(lp1233
F1697.5899999999997
aa(lp1234
F663.6400000000001
aa(lp1235
F70.22
aa(lp1236
F181.76
aa(lp1237
F1746.96
aa(lp1238
F752.0300000000001
aa(lp1239
F575.9599999999999
aa(lp1240
F68.47
aa(lp1241
F1686.0999999999997
aa(lp1242
F1806.5900000000004
aa(lp1243
F91.31
aa(lp1244
F990.2799999999999
aa(lp1245
F324.33
aa(lp1246
F411.11
aa(lp1247
F870.8899999999999
aa(lp1248
F3000.2599999999993
aa(lp1249
F23.81
aa(lp1250
F89.72
aa(lp1251
F924.2399999999998
aa(lp1252
F2174.639999999998
aa(lp1253
F636.2699999999999
aa(lp1254
F2516.52
aa(lp1255
F10419.029999999992
aa(lp1256
F92.72999999999999
aa(lp1257
F3190.9900000000002
aa(lp1258
F4886.42
aa(lp1259
F709.99
aa(lp1260
F971.04
aa(lp1261
F1726.6799999999994
aa(lp1262
F659.6
aa(lp1263
F69.91
aa(lp1264
F182.39999999999998
aa(lp1265
F2731.060000000001
aa(lp1266
F744.9300000000002
aa(lp1267
F574.3800000000001
aa(lp1268
F38.57
aa(lp1269
F1756.8500000000004
aa(lp1270
F1840.2499999999998
aa(lp1271
F91.29
aa(lp1272
F971.9499999999998
aa(lp1273
F327.60999999999996
aa(lp1274
F411.27
aa(lp1275
F868.1399999999999
aa(lp1276
F2992.9200000000005
aa(lp1277
F44.489999999999995
aa(lp1278
F134.01
aa(lp1279
F923.53
aa(lp1280
F2173.9599999999987
aa(lp1281
F638.3000000000002
aa(lp1282
F2533.96
aa(lp1283
F10721.999999999995
aa(lp1284
F92.94
aa(lp1285
F3180.6500000000005
aa(lp1286
F2829.089999999999
aa(lp1287
F705.2800000000004
aa(lp1288
F964.9399999999998
aa(lp1289
F1717.8599999999988
aa(lp1290
F662.8299999999999
aa(lp1291
F70.1
aa(lp1292
F181.87
aa(lp1293
F1741.150000000001
aa(lp1294
F719.21
aa(lp1295
F810.51
aa(lp1296
F55.260000000000005
aa(lp1297
F1710.9999999999998
aa(lp1298
F1835.3000000000002
aa(lp1299
F91.33
aa(lp1300
F968.4800000000004
aa(lp1301
F327.5
aa(lp1302
F411.21
aa(lp1303
F892.3099999999996
aa(lp1304
F2992.0200000000004
aa(lp1305
F42.32
aa(lp1306
F89.38999999999999
aa(lp1307
F922.3199999999998
aa(lp1308
F2167.71
aa(lp1309
F634.2399999999999
aa(lp1310
F2529.320000000001
aa(lp1311
F10410.349999999991
aa(lp1312
F146.74
aa(lp1313
F4205.870000000002
aa(lp1314
F2820.119999999998
aa(lp1315
F1571.91
aa(lp1316
F959.3600000000001
aa(lp1317
F1713.8000000000002
aa(lp1318
F657.92
aa(lp1319
F69.11
aa(lp1320
F181.0
aa(lp1321
F1759.6599999999994
aa(lp1322
F748.9599999999999
aa(lp1323
F753.2400000000001
aa(lp1324
F55.31
aa(lp1325
F1698.9200000000005
aa(lp1326
F1776.330000000001
aa(lp1327
F90.95
aa(lp1328
F985.94
aa(lp1329
F355.96
aa(lp1330
F409.45
aa(lp1331
F866.5499999999998
aa(lp1332
F2979.7999999999993
aa(lp1333
F42.36
aa(lp1334
F132.66
aa(lp1335
F917.1099999999998
aa(lp1336
F2161.540000000002
aa(lp1337
F1018.0399999999998
aa(lp1338
F2520.8999999999974
aa(lp1339
F10420.07
aa(lp1340
F93.4
aa(lp1341
F3172.4399999999987
aa(lp1342
F4773.58
aa(lp1343
F702.2900000000001
aa(lp1344
F956.3600000000002
aa(lp1345
F1685.3700000000008
aa(lp1346
F658.9100000000001
aa(lp1347
F84.9
aa(lp1348
F181.76999999999998
aa(lp1349
F2662.2700000000004
aa(lp1350
F749.4999999999999
aa(lp1351
F655.3299999999999
aa(lp1352
F39.269999999999996
aa(lp1353
F1709.3700000000006
aa(lp1354
F1826.3299999999995
aa(lp1355
F90.87
aa(lp1356
F970.2400000000001
aa(lp1357
F353.11
aa(lp1358
F409.82
aa(lp1359
F893.3299999999999
aa(lp1360
F2977.5299999999997
aa(lp1361
F23.4
aa(lp1362
F89.41
aa(lp1363
F916.6800000000001
aa(lp1364
F2160.0400000000013
aa(lp1365
F1007.38
aa(lp1366
F2517.9099999999985
aa(lp1367
F10407.390000000005
aa(lp1368
F92.50000000000001
aa(lp1369
F3166.360000000001
aa(lp1370
F2811.5499999999997
aa(lp1371
F1552.670000000001
aa(lp1372
F955.7399999999997
aa(lp1373
F1676.2899999999995
aa(lp1374
F658.9000000000001
aa(lp1375
F69.43
aa(lp1376
F180.77999999999997
aa(lp1377
F1760.9000000000003
aa(lp1378
F740.7
aa(lp1379
F573.0200000000001
aa(lp1380
F39.730000000000004
aa(lp1381
F1737.0899999999995
aa(lp1382
F1818.64
aa(lp1383
F90.88
aa(lp1384
F966.87
aa(lp1385
F357.63
aa(lp1386
F409.86999999999995
aa(lp1387
F867.4700000000001
aa(lp1388
F2983.0200000000004
aa(lp1389
F23.84
aa(lp1390
F89.54
aa(lp1391
F920.2299999999998
aa(lp1392
F2163.010000000001
aa(lp1393
F639.66
aa(lp1394
F2478.010000000001
aa(lp1395
F10555.080000000005
aa(lp1396
F92.64
aa(lp1397
F3159.070000000001
aa(lp1398
F2816.2400000000002
aa(lp1399
F1479.4300000000005
aa(lp1400
F955.6700000000001
aa(lp1401
F1746.2399999999996
aa(lp1402
F659.02
aa(lp1403
F86.01
aa(lp1404
F181.43999999999997
aa(lp1405
F1736.26
aa(lp1406
F717.7699999999999
aa(lp1407
F572.83
aa(lp1408
F39.03
aa(lp1409
F1800.2600000000002
aa(lp1410
F1827.2399999999996
aa(lp1411
F90.41000000000001
aa(lp1412
F971.8299999999998
aa(lp1413
F327.24
aa(lp1414
F410.56
aa(lp1415
F868.2399999999998
aa(lp1416
F2961.97
aa(lp1417
F44.120000000000005
aa(lp1418
F89.68
aa(lp1419
F45.199999999999996
aa(lp1420
F45.41
aa(lp1421
F63.61
aa(lp1422
F46.120000000000005
aa(lp1423
F47.290000000000006
aa(lp1424
F65.94999999999999
aa(lp1425
F66.86
aa(lp1426
F63.220000000000006
aa(lp1427
F47.660000000000004
aa(lp1428
F51.029999999999994
aa(lp1429
F64.82999999999998
aa(lp1430
F46.099999999999994
aa(lp1431
F45.43
aa(lp1432
F45.84
aa(lp1433
F46.47
aa(lp1434
F46.559999999999995
aa.